; Function Attrs: nounwind uwtable
define range(i32 -101, 1) i32 @CVDenseB(ptr noundef %0, i32 noundef %1, i64 noundef %2) local_unnamed_addr #0 {
  %4 = icmp eq ptr %0, null
  br i1 %4, label %5, label %6

5:                                                ; preds = %3
  tail call void (ptr, i32, ptr, ptr, ptr, ...) @cvProcessError(ptr noundef null, i32 noundef -1, ptr noundef nonnull @.str, ptr noundef nonnull @.str.5, ptr noundef nonnull @.str.2) #7
  br label %33

6:                                                ; preds = %3
  %7 = getelementptr inbounds nuw i8, ptr %0, i64 2200
  %8 = load i32, ptr %7, align 8, !tbaa !52
  %9 = icmp eq i32 %8, 0
  br i1 %9, label %10, label %11

10:                                               ; preds = %6
  tail call void (ptr, i32, ptr, ptr, ptr, ...) @cvProcessError(ptr noundef nonnull %0, i32 noundef -101, ptr noundef nonnull @.str, ptr noundef nonnull @.str.5, ptr noundef nonnull @.str.6) #7
  br label %33

11:                                               ; preds = %6
  %12 = getelementptr inbounds nuw i8, ptr %0, i64 2192
  %13 = load ptr, ptr %12, align 8, !tbaa !53
  %14 = getelementptr inbounds nuw i8, ptr %13, i64 40
  %15 = load i32, ptr %14, align 8, !tbaa !54
  %.not = icmp slt i32 %1, %15
  br i1 %.not, label %17, label %16

16:                                               ; preds = %11
  tail call void (ptr, i32, ptr, ptr, ptr, ...) @cvProcessError(ptr noundef nonnull %0, i32 noundef -3, ptr noundef nonnull @.str, ptr noundef nonnull @.str.5, ptr noundef nonnull @.str.7) #7
  br label %33

17:                                               ; preds = %11
  %18 = getelementptr inbounds nuw i8, ptr %13, i64 32
  br label %.lr.ph

.lr.ph:                                           ; preds = %.lr.ph, %17
  %.026.sink.in = phi ptr [ %21, %.lr.ph ], [ %18, %17 ]
  %.026.sink = load ptr, ptr %.026.sink.in, align 8, !tbaa !59, !nonnull !60, !noundef !60
  %19 = load i32, ptr %.026.sink, align 8, !tbaa !61
  %20 = icmp eq i32 %1, %19
  %21 = getelementptr inbounds nuw i8, ptr %.026.sink, i64 120
  br i1 %20, label %._crit_edge, label %.lr.ph

._crit_edge:                                      ; preds = %.lr.ph
  %22 = getelementptr inbounds nuw i8, ptr %.026.sink, i64 16
  %23 = load ptr, ptr %22, align 8, !tbaa !64
  %24 = tail call noalias dereferenceable_or_null(40) ptr @malloc(i64 noundef 40) #8
  %25 = icmp eq ptr %24, null
  br i1 %25, label %26, label %27

26:                                               ; preds = %._crit_edge
  tail call void (ptr, i32, ptr, ptr, ptr, ...) @cvProcessError(ptr noundef nonnull %0, i32 noundef -4, ptr noundef nonnull @.str, ptr noundef nonnull @.str.5, ptr noundef nonnull @.str.4) #7
  br label %33

27:                                               ; preds = %._crit_edge
  store i32 1, ptr %24, align 8, !tbaa !65
  %28 = getelementptr inbounds nuw i8, ptr %24, i64 8
  store ptr null, ptr %28, align 8, !tbaa !67
  %29 = getelementptr inbounds nuw i8, ptr %.026.sink, i64 72
  store ptr %24, ptr %29, align 8, !tbaa !68
  %30 = getelementptr inbounds nuw i8, ptr %.026.sink, i64 80
  store ptr @cvDenseFreeB, ptr %30, align 8, !tbaa !69
  %31 = tail call i32 @CVDense(ptr noundef %23, i64 noundef %2)
  %.not31 = icmp eq i32 %31, 0
  br i1 %.not31, label %33, label %32

32:                                               ; preds = %27
  tail call void @free(ptr noundef nonnull %24) #7
  br label %33

33:                                               ; preds = %27, %32, %26, %16, %10, %5
  %.0 = phi i32 [ -1, %5 ], [ -101, %10 ], [ -3, %16 ], [ -4, %26 ], [ %31, %32 ], [ 0, %27 ]
  ret i32 %.0
}